target datalayout = "e-m:e-p270:32:32-p271:32:32-p272:64:64-i64:64-i128:128-f80:128-n8:16:32:64-S128"
target triple = "x86_64-pc-linux-gnu"

%"class.std::__1::strstreambuf" = type { %"class.std::__1::basic_streambuf", i32, i64, ptr, ptr }
%"class.std::__1::basic_streambuf" = type { ptr, %"class.std::__1::locale", ptr, ptr, ptr, ptr, ptr, ptr }
%"class.std::__1::locale" = type { ptr }
%"struct.std::__1::__less" = type { i8 }

; Function Attrs: mustprogress nounwind uwtable
define linkonce_odr hidden noundef zeroext i1 @_ZNKSt3__16__lessIvvEclB8ne210000ImmEEbRKT_RKT0_(ptr noundef nonnull align 1 dereferenceable(1) %0, ptr noundef nonnull align 8 dereferenceable(8) %1, ptr noundef nonnull align 8 dereferenceable(8) %2) #1 comdat align 2 {
  %4 = alloca ptr, align 8
  %5 = alloca ptr, align 8
  %6 = alloca ptr, align 8
  store ptr %0, ptr %4, align 8, !tbaa !73
  store ptr %1, ptr %5, align 8, !tbaa !36
  store ptr %2, ptr %6, align 8, !tbaa !36
  %7 = load ptr, ptr %5, align 8, !tbaa !36
  %8 = load i64, ptr %7, align 8, !tbaa !9
  %9 = load ptr, ptr %6, align 8, !tbaa !36
  %10 = load i64, ptr %9, align 8, !tbaa !9
  %11 = icmp ult i64 %8, %10
  ret i1 %11
}

; Function Attrs: inlinehint mustprogress uwtable
define linkonce_odr hidden noundef nonnull align 8 dereferenceable(8) ptr @_ZNSt3__13maxB8ne210000ImNS_6__lessIvvEEEERKT_S5_S5_T0_(ptr noundef nonnull align 8 dereferenceable(8) %0, ptr noundef nonnull align 8 dereferenceable(8) %1) #7 comdat {
  %3 = alloca %"struct.std::__1::__less", align 1
  %4 = alloca ptr, align 8
  %5 = alloca ptr, align 8
  store ptr %0, ptr %4, align 8, !tbaa !36
  store ptr %1, ptr %5, align 8, !tbaa !36
  %6 = load ptr, ptr %4, align 8, !tbaa !36
  %7 = load ptr, ptr %5, align 8, !tbaa !36
  %8 = call noundef zeroext i1 @_ZNKSt3__16__lessIvvEclB8ne210000ImmEEbRKT_RKT0_(ptr noundef nonnull align 1 dereferenceable(1) %3, ptr noundef nonnull align 8 dereferenceable(8) %6, ptr noundef nonnull align 8 dereferenceable(8) %7)
  br i1 %8, label %9, label %11

9:                                                ; preds = %2
  %10 = load ptr, ptr %5, align 8, !tbaa !36
  br label %13

11:                                               ; preds = %2
  %12 = load ptr, ptr %4, align 8, !tbaa !36
  br label %13

13:                                               ; preds = %11, %9
  %14 = phi ptr [ %10, %9 ], [ %12, %11 ]
  ret ptr %14
}

; Function Attrs: inlinehint mustprogress nounwind uwtable
define available_externally void @_ZNSt3__115basic_streambufIcNS_11char_traitsIcEEE5pbumpEi(ptr noundef nonnull align 8 dereferenceable(64) %0, i32 noundef %1) #3 align 2 {
  %3 = alloca ptr, align 8
  %4 = alloca i32, align 4
  store ptr %0, ptr %3, align 8, !tbaa !23
  store i32 %1, ptr %4, align 4, !tbaa !35
  %5 = load ptr, ptr %3, align 8
  %6 = load i32, ptr %4, align 4, !tbaa !35
  %7 = getelementptr inbounds nuw %"class.std::__1::basic_streambuf", ptr %5, i32 0, i32 6
  %8 = load ptr, ptr %7, align 8, !tbaa !29
  %9 = sext i32 %6 to i64
  %10 = getelementptr inbounds i8, ptr %8, i64 %9
  store ptr %10, ptr %7, align 8, !tbaa !29
  ret void
}

; Function Attrs: mustprogress nounwind uwtable
define linkonce_odr hidden void @_ZNSt3__115basic_streambufIcNS_11char_traitsIcEEE7__pbumpB8ne210000El(ptr noundef nonnull align 8 dereferenceable(64) %0, i64 noundef %1) #1 comdat align 2 {
  %3 = alloca ptr, align 8
  %4 = alloca i64, align 8
  store ptr %0, ptr %3, align 8, !tbaa !23
  store i64 %1, ptr %4, align 8, !tbaa !9
  %5 = load ptr, ptr %3, align 8
  %6 = load i64, ptr %4, align 8, !tbaa !9
  %7 = getelementptr inbounds nuw %"class.std::__1::basic_streambuf", ptr %5, i32 0, i32 6
  %8 = load ptr, ptr %7, align 8, !tbaa !29
  %9 = getelementptr inbounds i8, ptr %8, i64 %6
  store ptr %9, ptr %7, align 8, !tbaa !29
  ret void
}

; Function Attrs: inlinehint mustprogress nounwind uwtable
define available_externally void @_ZNSt3__115basic_streambufIcNS_11char_traitsIcEEE4setpEPcS4_(ptr noundef nonnull align 8 dereferenceable(64) %0, ptr noundef %1, ptr noundef %2) #3 align 2 {
  %4 = alloca ptr, align 8
  %5 = alloca ptr, align 8
  %6 = alloca ptr, align 8
  store ptr %0, ptr %4, align 8, !tbaa !23
  store ptr %1, ptr %5, align 8, !tbaa !32
  store ptr %2, ptr %6, align 8, !tbaa !32
  %7 = load ptr, ptr %4, align 8
  %8 = load ptr, ptr %5, align 8, !tbaa !32
  %9 = getelementptr inbounds nuw %"class.std::__1::basic_streambuf", ptr %7, i32 0, i32 6
  store ptr %8, ptr %9, align 8, !tbaa !29
  %10 = getelementptr inbounds nuw %"class.std::__1::basic_streambuf", ptr %7, i32 0, i32 5
  store ptr %8, ptr %10, align 8, !tbaa !28
  %11 = load ptr, ptr %6, align 8, !tbaa !32
  %12 = getelementptr inbounds nuw %"class.std::__1::basic_streambuf", ptr %7, i32 0, i32 7
  store ptr %11, ptr %12, align 8, !tbaa !30
  ret void
}

; Function Attrs: inlinehint mustprogress nounwind uwtable
define available_externally void @_ZNSt3__115basic_streambufIcNS_11char_traitsIcEEE4setgEPcS4_S4_(ptr noundef nonnull align 8 dereferenceable(64) %0, ptr noundef %1, ptr noundef %2, ptr noundef %3) #3 align 2 {
  %5 = alloca ptr, align 8
  %6 = alloca ptr, align 8
  %7 = alloca ptr, align 8
  %8 = alloca ptr, align 8
  store ptr %0, ptr %5, align 8, !tbaa !23
  store ptr %1, ptr %6, align 8, !tbaa !32
  store ptr %2, ptr %7, align 8, !tbaa !32
  store ptr %3, ptr %8, align 8, !tbaa !32
  %9 = load ptr, ptr %5, align 8
  %10 = load ptr, ptr %6, align 8, !tbaa !32
  %11 = getelementptr inbounds nuw %"class.std::__1::basic_streambuf", ptr %9, i32 0, i32 2
  store ptr %10, ptr %11, align 8, !tbaa !25
  %12 = load ptr, ptr %7, align 8, !tbaa !32
  %13 = getelementptr inbounds nuw %"class.std::__1::basic_streambuf", ptr %9, i32 0, i32 3
  store ptr %12, ptr %13, align 8, !tbaa !26
  %14 = load ptr, ptr %8, align 8, !tbaa !32
  %15 = getelementptr inbounds nuw %"class.std::__1::basic_streambuf", ptr %9, i32 0, i32 4
  store ptr %14, ptr %15, align 8, !tbaa !27
  ret void
}

; Function Attrs: mustprogress nounwind uwtable
define linkonce_odr hidden noundef ptr @_ZNKSt3__115basic_streambufIcNS_11char_traitsIcEEE5pbaseB8ne210000Ev(ptr noundef nonnull align 8 dereferenceable(64) %0) #1 comdat align 2 {
  %2 = alloca ptr, align 8
  store ptr %0, ptr %2, align 8, !tbaa !23
  %3 = load ptr, ptr %2, align 8
  %4 = getelementptr inbounds nuw %"class.std::__1::basic_streambuf", ptr %3, i32 0, i32 5
  %5 = load ptr, ptr %4, align 8, !tbaa !28
  ret ptr %5
}

; Function Attrs: mustprogress nounwind uwtable
define linkonce_odr hidden noundef ptr @_ZNKSt3__115basic_streambufIcNS_11char_traitsIcEEE4gptrB8ne210000Ev(ptr noundef nonnull align 8 dereferenceable(64) %0) #1 comdat align 2 {
  %2 = alloca ptr, align 8
  store ptr %0, ptr %2, align 8, !tbaa !23
  %3 = load ptr, ptr %2, align 8
  %4 = getelementptr inbounds nuw %"class.std::__1::basic_streambuf", ptr %3, i32 0, i32 3
  %5 = load ptr, ptr %4, align 8, !tbaa !26
  ret ptr %5
}

; Function Attrs: inlinehint mustprogress uwtable
define linkonce_odr hidden noundef nonnull align 8 dereferenceable(8) ptr @_ZNSt3__13maxB8ne210000ImEERKT_S3_S3_(ptr noundef nonnull align 8 dereferenceable(8) %0, ptr noundef nonnull align 8 dereferenceable(8) %1) #7 comdat {
  %3 = alloca ptr, align 8
  %4 = alloca ptr, align 8
  store ptr %0, ptr %3, align 8, !tbaa !36
  store ptr %1, ptr %4, align 8, !tbaa !36
  %5 = load ptr, ptr %3, align 8, !tbaa !36
  %6 = load ptr, ptr %4, align 8, !tbaa !36
  %7 = call noundef nonnull align 8 dereferenceable(8) ptr @_ZNSt3__13maxB8ne210000ImNS_6__lessIvvEEEERKT_S5_S5_T0_(ptr noundef nonnull align 8 dereferenceable(8) %5, ptr noundef nonnull align 8 dereferenceable(8) %6)
  ret ptr %7
}

; Function Attrs: mustprogress nounwind uwtable
define linkonce_odr hidden noundef ptr @_ZNKSt3__115basic_streambufIcNS_11char_traitsIcEEE5ebackB8ne210000Ev(ptr noundef nonnull align 8 dereferenceable(64) %0) #1 comdat align 2 {
  %2 = alloca ptr, align 8
  store ptr %0, ptr %2, align 8, !tbaa !23
  %3 = load ptr, ptr %2, align 8
  %4 = getelementptr inbounds nuw %"class.std::__1::basic_streambuf", ptr %3, i32 0, i32 2
  %5 = load ptr, ptr %4, align 8, !tbaa !25
  ret ptr %5
}

; Function Attrs: mustprogress nounwind uwtable
define linkonce_odr hidden noundef ptr @_ZNKSt3__115basic_streambufIcNS_11char_traitsIcEEE5egptrB8ne210000Ev(ptr noundef nonnull align 8 dereferenceable(64) %0) #1 comdat align 2 {
  %2 = alloca ptr, align 8
  store ptr %0, ptr %2, align 8, !tbaa !23
  %3 = load ptr, ptr %2, align 8
  %4 = getelementptr inbounds nuw %"class.std::__1::basic_streambuf", ptr %3, i32 0, i32 4
  %5 = load ptr, ptr %4, align 8, !tbaa !27
  ret ptr %5
}

; Function Attrs: mustprogress nounwind uwtable
define linkonce_odr hidden noundef ptr @_ZNKSt3__115basic_streambufIcNS_11char_traitsIcEEE5epptrB8ne210000Ev(ptr noundef nonnull align 8 dereferenceable(64) %0) #1 comdat align 2 {
  %2 = alloca ptr, align 8
  store ptr %0, ptr %2, align 8, !tbaa !23
  %3 = load ptr, ptr %2, align 8
  %4 = getelementptr inbounds nuw %"class.std::__1::basic_streambuf", ptr %3, i32 0, i32 7
  %5 = load ptr, ptr %4, align 8, !tbaa !30
  ret ptr %5
}

; Function Attrs: mustprogress nounwind uwtable
define linkonce_odr hidden noundef ptr @_ZNKSt3__115basic_streambufIcNS_11char_traitsIcEEE4pptrB8ne210000Ev(ptr noundef nonnull align 8 dereferenceable(64) %0) #1 comdat align 2 {
  %2 = alloca ptr, align 8
  store ptr %0, ptr %2, align 8, !tbaa !23
  %3 = load ptr, ptr %2, align 8
  %4 = getelementptr inbounds nuw %"class.std::__1::basic_streambuf", ptr %3, i32 0, i32 6
  %5 = load ptr, ptr %4, align 8, !tbaa !29
  ret ptr %5
}

; Function Attrs: mustprogress uwtable
define dso_local noundef i32 @_ZNSt3__112strstreambuf8overflowEi(ptr noundef nonnull align 8 dereferenceable(96) %0, i32 noundef %1) unnamed_addr #0 align 2 {
  %3 = alloca i32, align 4
  %4 = alloca ptr, align 8
  %5 = alloca i32, align 4
  %6 = alloca i64, align 8
  %7 = alloca i64, align 8
  %8 = alloca i64, align 8
  %9 = alloca i64, align 8
  %10 = alloca ptr, align 8
  %11 = alloca i32, align 4
  %12 = alloca i64, align 8
  %13 = alloca i64, align 8
  %14 = alloca i64, align 8
  store ptr %0, ptr %4, align 8, !tbaa !4
  store i32 %1, ptr %5, align 4, !tbaa !35
  %15 = load ptr, ptr %4, align 8
  %16 = load i32, ptr %5, align 4, !tbaa !35
  %17 = icmp eq i32 %16, -1
  br i1 %17, label %18, label %19

18:                                               ; preds = %2
  store i32 0, ptr %3, align 4
  br label %141

19:                                               ; preds = %2
  %20 = call noundef ptr @_ZNKSt3__115basic_streambufIcNS_11char_traitsIcEEE4pptrB8ne210000Ev(ptr noundef nonnull align 8 dereferenceable(64) %15)
  %21 = call noundef ptr @_ZNKSt3__115basic_streambufIcNS_11char_traitsIcEEE5epptrB8ne210000Ev(ptr noundef nonnull align 8 dereferenceable(64) %15)
  %22 = icmp eq ptr %20, %21
  br i1 %22, label %23, label %134

23:                                               ; preds = %19
  %24 = getelementptr inbounds nuw %"class.std::__1::strstreambuf", ptr %15, i32 0, i32 1
  %25 = load i32, ptr %24, align 8, !tbaa !13
  %26 = and i32 %25, 4
  %27 = icmp eq i32 %26, 0
  br i1 %27, label %33, label %28

28:                                               ; preds = %23
  %29 = getelementptr inbounds nuw %"class.std::__1::strstreambuf", ptr %15, i32 0, i32 1
  %30 = load i32, ptr %29, align 8, !tbaa !13
  %31 = and i32 %30, 8
  %32 = icmp ne i32 %31, 0
  br i1 %32, label %33, label %34

33:                                               ; preds = %28, %23
  store i32 -1, ptr %3, align 4
  br label %141

34:                                               ; preds = %28
  call void @llvm.lifetime.start.p0(i64 8, ptr %6) #14
  %35 = call noundef ptr @_ZNKSt3__115basic_streambufIcNS_11char_traitsIcEEE5epptrB8ne210000Ev(ptr noundef nonnull align 8 dereferenceable(64) %15)
  %36 = icmp ne ptr %35, null
  br i1 %36, label %37, label %39

37:                                               ; preds = %34
  %38 = call noundef ptr @_ZNKSt3__115basic_streambufIcNS_11char_traitsIcEEE5epptrB8ne210000Ev(ptr noundef nonnull align 8 dereferenceable(64) %15)
  br label %41

39:                                               ; preds = %34
  %40 = call noundef ptr @_ZNKSt3__115basic_streambufIcNS_11char_traitsIcEEE5egptrB8ne210000Ev(ptr noundef nonnull align 8 dereferenceable(64) %15)
  br label %41

41:                                               ; preds = %39, %37
  %42 = phi ptr [ %38, %37 ], [ %40, %39 ]
  %43 = call noundef ptr @_ZNKSt3__115basic_streambufIcNS_11char_traitsIcEEE5ebackB8ne210000Ev(ptr noundef nonnull align 8 dereferenceable(64) %15)
  %44 = ptrtoint ptr %42 to i64
  %45 = ptrtoint ptr %43 to i64
  %46 = sub i64 %44, %45
  store i64 %46, ptr %6, align 8, !tbaa !9
  call void @llvm.lifetime.start.p0(i64 8, ptr %7) #14
  call void @llvm.lifetime.start.p0(i64 8, ptr %8) #14
  %47 = getelementptr inbounds nuw %"class.std::__1::strstreambuf", ptr %15, i32 0, i32 2
  %48 = load i64, ptr %47, align 8, !tbaa !20
  store i64 %48, ptr %8, align 8, !tbaa !9
  call void @llvm.lifetime.start.p0(i64 8, ptr %9) #14
  %49 = load i64, ptr %6, align 8, !tbaa !9
  %50 = mul i64 2, %49
  store i64 %50, ptr %9, align 8, !tbaa !9
  %51 = call noundef nonnull align 8 dereferenceable(8) ptr @_ZNSt3__13maxB8ne210000ImEERKT_S3_S3_(ptr noundef nonnull align 8 dereferenceable(8) %8, ptr noundef nonnull align 8 dereferenceable(8) %9)
  %52 = load i64, ptr %51, align 8, !tbaa !9
  call void @llvm.lifetime.end.p0(i64 8, ptr %9) #14
  call void @llvm.lifetime.end.p0(i64 8, ptr %8) #14
  store i64 %52, ptr %7, align 8, !tbaa !9
  %53 = load i64, ptr %7, align 8, !tbaa !9
  %54 = icmp eq i64 %53, 0
  br i1 %54, label %55, label %56

55:                                               ; preds = %41
  store i64 4096, ptr %7, align 8, !tbaa !9
  br label %56

56:                                               ; preds = %55, %41
  call void @llvm.lifetime.start.p0(i64 8, ptr %10) #14
  store ptr null, ptr %10, align 8, !tbaa !32
  %57 = getelementptr inbounds nuw %"class.std::__1::strstreambuf", ptr %15, i32 0, i32 3
  %58 = load ptr, ptr %57, align 8, !tbaa !21
  %59 = icmp ne ptr %58, null
  br i1 %59, label %60, label %65

60:                                               ; preds = %56
  %61 = getelementptr inbounds nuw %"class.std::__1::strstreambuf", ptr %15, i32 0, i32 3
  %62 = load ptr, ptr %61, align 8, !tbaa !21
  %63 = load i64, ptr %7, align 8, !tbaa !9
  %64 = call noundef ptr %62(i64 noundef %63)
  store ptr %64, ptr %10, align 8, !tbaa !32
  br label %68

65:                                               ; preds = %56
  %66 = load i64, ptr %7, align 8, !tbaa !9
  %67 = call noalias noundef nonnull ptr @_Znam(i64 noundef %66) #18
  store ptr %67, ptr %10, align 8, !tbaa !32
  br label %68

68:                                               ; preds = %65, %60
  %69 = load ptr, ptr %10, align 8, !tbaa !32
  %70 = icmp eq ptr %69, null
  br i1 %70, label %71, label %72

71:                                               ; preds = %68
  store i32 -1, ptr %3, align 4
  store i32 1, ptr %11, align 4
  br label %131

72:                                               ; preds = %68
  %73 = load i64, ptr %6, align 8, !tbaa !9
  %74 = icmp ne i64 %73, 0
  br i1 %74, label %75, label %79

75:                                               ; preds = %72
  %76 = load ptr, ptr %10, align 8, !tbaa !32
  %77 = call noundef ptr @_ZNKSt3__115basic_streambufIcNS_11char_traitsIcEEE5ebackB8ne210000Ev(ptr noundef nonnull align 8 dereferenceable(64) %15)
  %78 = load i64, ptr %6, align 8, !tbaa !9
  call void @llvm.memcpy.p0.p0.i64(ptr align 1 %76, ptr align 1 %77, i64 %78, i1 false)
  br label %79

79:                                               ; preds = %75, %72
  call void @llvm.lifetime.start.p0(i64 8, ptr %12) #14
  %80 = call noundef ptr @_ZNKSt3__115basic_streambufIcNS_11char_traitsIcEEE4gptrB8ne210000Ev(ptr noundef nonnull align 8 dereferenceable(64) %15)
  %81 = call noundef ptr @_ZNKSt3__115basic_streambufIcNS_11char_traitsIcEEE5ebackB8ne210000Ev(ptr noundef nonnull align 8 dereferenceable(64) %15)
  %82 = ptrtoint ptr %80 to i64
  %83 = ptrtoint ptr %81 to i64
  %84 = sub i64 %82, %83
  store i64 %84, ptr %12, align 8, !tbaa !9
  call void @llvm.lifetime.start.p0(i64 8, ptr %13) #14
  %85 = call noundef ptr @_ZNKSt3__115basic_streambufIcNS_11char_traitsIcEEE5egptrB8ne210000Ev(ptr noundef nonnull align 8 dereferenceable(64) %15)
  %86 = call noundef ptr @_ZNKSt3__115basic_streambufIcNS_11char_traitsIcEEE5ebackB8ne210000Ev(ptr noundef nonnull align 8 dereferenceable(64) %15)
  %87 = ptrtoint ptr %85 to i64
  %88 = ptrtoint ptr %86 to i64
  %89 = sub i64 %87, %88
  store i64 %89, ptr %13, align 8, !tbaa !9
  call void @llvm.lifetime.start.p0(i64 8, ptr %14) #14
  %90 = call noundef ptr @_ZNKSt3__115basic_streambufIcNS_11char_traitsIcEEE4pptrB8ne210000Ev(ptr noundef nonnull align 8 dereferenceable(64) %15)
  %91 = call noundef ptr @_ZNKSt3__115basic_streambufIcNS_11char_traitsIcEEE5pbaseB8ne210000Ev(ptr noundef nonnull align 8 dereferenceable(64) %15)
  %92 = ptrtoint ptr %90 to i64
  %93 = ptrtoint ptr %91 to i64
  %94 = sub i64 %92, %93
  store i64 %94, ptr %14, align 8, !tbaa !9
  %95 = getelementptr inbounds nuw %"class.std::__1::strstreambuf", ptr %15, i32 0, i32 1
  %96 = load i32, ptr %95, align 8, !tbaa !13
  %97 = and i32 %96, 1
  %98 = icmp ne i32 %97, 0
  br i1 %98, label %99, label %113

99:                                               ; preds = %79
  %100 = getelementptr inbounds nuw %"class.std::__1::strstreambuf", ptr %15, i32 0, i32 4
  %101 = load ptr, ptr %100, align 8, !tbaa !22
  %102 = icmp ne ptr %101, null
  br i1 %102, label %103, label %107

103:                                              ; preds = %99
  %104 = getelementptr inbounds nuw %"class.std::__1::strstreambuf", ptr %15, i32 0, i32 4
  %105 = load ptr, ptr %104, align 8, !tbaa !22
  %106 = call noundef ptr @_ZNKSt3__115basic_streambufIcNS_11char_traitsIcEEE5ebackB8ne210000Ev(ptr noundef nonnull align 8 dereferenceable(64) %15)
  call void %105(ptr noundef %106)
  br label %112

107:                                              ; preds = %99
  %108 = call noundef ptr @_ZNKSt3__115basic_streambufIcNS_11char_traitsIcEEE5ebackB8ne210000Ev(ptr noundef nonnull align 8 dereferenceable(64) %15)
  %109 = icmp eq ptr %108, null
  br i1 %109, label %111, label %110

110:                                              ; preds = %107
  call void @_ZdaPv(ptr noundef %108) #16
  br label %111

111:                                              ; preds = %110, %107
  br label %112

112:                                              ; preds = %111, %103
  br label %113

113:                                              ; preds = %112, %79
  %114 = load ptr, ptr %10, align 8, !tbaa !32
  %115 = load ptr, ptr %10, align 8, !tbaa !32
  %116 = load i64, ptr %12, align 8, !tbaa !9
  %117 = getelementptr inbounds i8, ptr %115, i64 %116
  %118 = load ptr, ptr %10, align 8, !tbaa !32
  %119 = load i64, ptr %13, align 8, !tbaa !9
  %120 = getelementptr inbounds i8, ptr %118, i64 %119
  call void @_ZNSt3__115basic_streambufIcNS_11char_traitsIcEEE4setgEPcS4_S4_(ptr noundef nonnull align 8 dereferenceable(64) %15, ptr noundef %114, ptr noundef %117, ptr noundef %120)
  %121 = load ptr, ptr %10, align 8, !tbaa !32
  %122 = load i64, ptr %13, align 8, !tbaa !9
  %123 = getelementptr inbounds i8, ptr %121, i64 %122
  %124 = load ptr, ptr %10, align 8, !tbaa !32
  %125 = load i64, ptr %7, align 8, !tbaa !9
  %126 = getelementptr inbounds nuw i8, ptr %124, i64 %125
  call void @_ZNSt3__115basic_streambufIcNS_11char_traitsIcEEE4setpEPcS4_(ptr noundef nonnull align 8 dereferenceable(64) %15, ptr noundef %123, ptr noundef %126)
  %127 = load i64, ptr %14, align 8, !tbaa !9
  call void @_ZNSt3__115basic_streambufIcNS_11char_traitsIcEEE7__pbumpB8ne210000El(ptr noundef nonnull align 8 dereferenceable(64) %15, i64 noundef %127)
  %128 = getelementptr inbounds nuw %"class.std::__1::strstreambuf", ptr %15, i32 0, i32 1
  %129 = load i32, ptr %128, align 8, !tbaa !13
  %130 = or i32 %129, 1
  store i32 %130, ptr %128, align 8, !tbaa !13
  call void @llvm.lifetime.end.p0(i64 8, ptr %14) #14
  call void @llvm.lifetime.end.p0(i64 8, ptr %13) #14
  call void @llvm.lifetime.end.p0(i64 8, ptr %12) #14
  store i32 0, ptr %11, align 4
  br label %131

131:                                              ; preds = %113, %71
  call void @llvm.lifetime.end.p0(i64 8, ptr %10) #14
  call void @llvm.lifetime.end.p0(i64 8, ptr %7) #14
  call void @llvm.lifetime.end.p0(i64 8, ptr %6) #14
  %132 = load i32, ptr %11, align 4
  switch i32 %132, label %143 [
    i32 0, label %133
    i32 1, label %141
  ]

133:                                              ; preds = %131
  br label %134

134:                                              ; preds = %133, %19
  %135 = load i32, ptr %5, align 4, !tbaa !35
  %136 = trunc i32 %135 to i8
  %137 = call noundef ptr @_ZNKSt3__115basic_streambufIcNS_11char_traitsIcEEE4pptrB8ne210000Ev(ptr noundef nonnull align 8 dereferenceable(64) %15)
  store i8 %136, ptr %137, align 1, !tbaa !44
  call void @_ZNSt3__115basic_streambufIcNS_11char_traitsIcEEE5pbumpEi(ptr noundef nonnull align 8 dereferenceable(64) %15, i32 noundef 1)
  %138 = load i32, ptr %5, align 4, !tbaa !35
  %139 = trunc i32 %138 to i8
  %140 = zext i8 %139 to i32
  store i32 %140, ptr %3, align 4
  br label %141

141:                                              ; preds = %134, %131, %33, %18
  %142 = load i32, ptr %3, align 4
  ret i32 %142

143:                                              ; preds = %131
  unreachable
}