; Function Attrs: mustprogress uwtable
define dso_local noundef range(i32 -1, 256) i32 @_ZNSt3__112strstreambuf8overflowEi(ptr noundef nonnull align 8 captures(none) dereferenceable(96) %0, i32 noundef %1) unnamed_addr #8 align 2 {
  %3 = icmp eq i32 %1, -1
  br i1 %3, label %72, label %4

4:                                                ; preds = %2
  %5 = getelementptr inbounds nuw i8, ptr %0, i64 48
  %6 = load ptr, ptr %5, align 8, !tbaa !20
  %7 = getelementptr inbounds nuw i8, ptr %0, i64 56
  %8 = load ptr, ptr %7, align 8, !tbaa !22
  %9 = icmp eq ptr %6, %8
  br i1 %9, label %10, label %66

10:                                               ; preds = %4
  %11 = getelementptr inbounds nuw i8, ptr %0, i64 64
  %12 = load i32, ptr %11, align 8, !tbaa !7
  %13 = and i32 %12, 12
  %or.cond = icmp eq i32 %13, 4
  br i1 %or.cond, label %14, label %72

14:                                               ; preds = %10
  %.not30 = icmp eq ptr %6, null
  %15 = getelementptr inbounds nuw i8, ptr %0, i64 32
  %16 = load ptr, ptr %15, align 8
  %17 = select i1 %.not30, ptr %16, ptr %6
  %18 = getelementptr inbounds nuw i8, ptr %0, i64 16
  %19 = load ptr, ptr %18, align 8, !tbaa !23
  %20 = ptrtoint ptr %17 to i64
  %21 = ptrtoint ptr %19 to i64
  %22 = sub i64 %20, %21
  %23 = getelementptr inbounds nuw i8, ptr %0, i64 72
  %24 = load i64, ptr %23, align 8, !tbaa !17
  %25 = shl i64 %22, 1
  %.sroa.speculated = tail call i64 @llvm.umax.i64(i64 %24, i64 %25)
  %26 = icmp eq i64 %.sroa.speculated, 0
  %spec.store.select = select i1 %26, i64 4096, i64 %.sroa.speculated
  %27 = getelementptr inbounds nuw i8, ptr %0, i64 80
  %28 = load ptr, ptr %27, align 8, !tbaa !18
  %.not31 = icmp eq ptr %28, null
  br i1 %.not31, label %.thread, label %30

.thread:                                          ; preds = %14
  %29 = tail call noalias noundef nonnull ptr @_Znam(i64 noundef %spec.store.select) #22
  br label %33

30:                                               ; preds = %14
  %31 = tail call noundef ptr %28(i64 noundef %spec.store.select)
  %32 = icmp eq ptr %31, null
  br i1 %32, label %72, label %._crit_edge

._crit_edge:                                      ; preds = %30
  %.pre42.pre = load ptr, ptr %18, align 8, !tbaa !23
  br label %33

33:                                               ; preds = %._crit_edge, %.thread
  %.pre42 = phi ptr [ %19, %.thread ], [ %.pre42.pre, %._crit_edge ]
  %.02339 = phi ptr [ %29, %.thread ], [ %31, %._crit_edge ]
  %.not32 = icmp eq ptr %17, %19
  br i1 %.not32, label %35, label %34

34:                                               ; preds = %33
  tail call void @llvm.memcpy.p0.p0.i64(ptr nonnull align 1 %.02339, ptr align 1 %.pre42, i64 %22, i1 false)
  %.pre = load ptr, ptr %18, align 8, !tbaa !23
  br label %35

35:                                               ; preds = %34, %33
  %36 = phi ptr [ %.pre, %34 ], [ %.pre42, %33 ]
  %37 = getelementptr inbounds nuw i8, ptr %0, i64 24
  %38 = load ptr, ptr %37, align 8, !tbaa !24
  %39 = ptrtoint ptr %38 to i64
  %40 = ptrtoint ptr %36 to i64
  %41 = sub i64 %39, %40
  %42 = load ptr, ptr %15, align 8, !tbaa !25
  %43 = ptrtoint ptr %42 to i64
  %44 = sub i64 %43, %40
  %45 = load ptr, ptr %5, align 8, !tbaa !20
  %46 = getelementptr inbounds nuw i8, ptr %0, i64 40
  %47 = load ptr, ptr %46, align 8, !tbaa !21
  %48 = ptrtoint ptr %45 to i64
  %49 = ptrtoint ptr %47 to i64
  %50 = sub i64 %48, %49
  %51 = load i32, ptr %11, align 8, !tbaa !7
  %52 = and i32 %51, 1
  %.not33 = icmp eq i32 %52, 0
  br i1 %.not33, label %.thread40, label %53

53:                                               ; preds = %35
  %54 = getelementptr inbounds nuw i8, ptr %0, i64 88
  %55 = load ptr, ptr %54, align 8, !tbaa !19
  %.not34 = icmp eq ptr %55, null
  br i1 %.not34, label %57, label %56

56:                                               ; preds = %53
  tail call void %55(ptr noundef %36)
  br label %.thread40

57:                                               ; preds = %53
  %58 = icmp eq ptr %36, null
  br i1 %58, label %.thread40, label %59

59:                                               ; preds = %57
  tail call void @_ZdaPv(ptr noundef nonnull %36) #20
  br label %.thread40

.thread40:                                        ; preds = %35, %57, %59, %56
  %60 = getelementptr inbounds i8, ptr %.02339, i64 %41
  %61 = getelementptr inbounds i8, ptr %.02339, i64 %44
  store ptr %.02339, ptr %18, align 8, !tbaa !23
  store ptr %60, ptr %37, align 8, !tbaa !24
  store ptr %61, ptr %15, align 8, !tbaa !25
  %62 = getelementptr inbounds nuw i8, ptr %.02339, i64 %spec.store.select
  store ptr %61, ptr %46, align 8, !tbaa !21
  store ptr %62, ptr %7, align 8, !tbaa !22
  %63 = getelementptr inbounds i8, ptr %61, i64 %50
  store ptr %63, ptr %5, align 8, !tbaa !20
  %64 = load i32, ptr %11, align 8, !tbaa !7
  %65 = or i32 %64, 1
  store i32 %65, ptr %11, align 8, !tbaa !7
  br label %66

66:                                               ; preds = %.thread40, %4
  %67 = phi ptr [ %63, %.thread40 ], [ %6, %4 ]
  %68 = trunc i32 %1 to i8
  store i8 %68, ptr %67, align 1, !tbaa !30
  %69 = load ptr, ptr %5, align 8, !tbaa !20
  %70 = getelementptr inbounds nuw i8, ptr %69, i64 1
  store ptr %70, ptr %5, align 8, !tbaa !20
  %71 = and i32 %1, 255
  br label %72

72:                                               ; preds = %30, %10, %2, %66
  %.0 = phi i32 [ %71, %66 ], [ 0, %2 ], [ -1, %10 ], [ -1, %30 ]
  ret i32 %.0
}